; Function Attrs: nounwind uwtable
define zeroext i8 @l_Option_beqOption____x40_Init_Data_Option_Basic___hyg_160____at_Lean_Elab_Tactic_SolveByElim_parseArgs___spec__4(ptr noundef %0, ptr noundef %1) local_unnamed_addr #0 {
  %3 = ptrtoint ptr %0 to i64
  %4 = and i64 %3, 1
  %.not.i27 = icmp eq i64 %4, 0
  br i1 %.not.i27, label %8, label %5

5:                                                ; preds = %2
  %6 = lshr i64 %3, 1
  %7 = trunc i64 %6 to i32
  br label %lean_obj_tag.exit

8:                                                ; preds = %2
  %9 = getelementptr i8, ptr %0, i64 4
  %.val.i = load i32, ptr %9, align 4
  %10 = lshr i32 %.val.i, 24
  br label %lean_obj_tag.exit

lean_obj_tag.exit:                                ; preds = %5, %8
  %.0.i = phi i32 [ %7, %5 ], [ %10, %8 ]
  %11 = icmp eq i32 %.0.i, 0
  %12 = ptrtoint ptr %1 to i64
  %13 = and i64 %12, 1
  %.not.i28 = icmp eq i64 %13, 0
  br i1 %11, label %14, label %25

14:                                               ; preds = %lean_obj_tag.exit
  br i1 %.not.i28, label %lean_obj_tag.exit31.thread, label %lean_obj_tag.exit31

lean_obj_tag.exit31:                              ; preds = %14
  %15 = and i64 %12, 8589934590
  %16 = icmp eq i64 %15, 0
  %spec.select = zext i1 %16 to i8
  br label %lean_dec.exit19

lean_obj_tag.exit31.thread:                       ; preds = %14
  %17 = getelementptr i8, ptr %1, i64 4
  %.val.i30 = load i32, ptr %17, align 4
  %18 = icmp ult i32 %.val.i30, 16777216
  br i1 %18, label %lean_dec.exit19, label %.thread

.thread:                                          ; preds = %lean_obj_tag.exit31.thread
  %19 = load i32, ptr %1, align 4, !tbaa !8
  %20 = icmp sgt i32 %19, 1
  br i1 %20, label %21, label %23, !prof !11

21:                                               ; preds = %.thread
  %22 = add nsw i32 %19, -1
  store i32 %22, ptr %1, align 4, !tbaa !8
  br label %lean_dec.exit19

23:                                               ; preds = %.thread
  %.not.i = icmp eq i32 %19, 0
  br i1 %.not.i, label %lean_dec.exit19, label %24

24:                                               ; preds = %23
  tail call void @lean_dec_ref_cold(ptr noundef nonnull %1) #4
  br label %lean_dec.exit19

25:                                               ; preds = %lean_obj_tag.exit
  br i1 %.not.i28, label %29, label %26

26:                                               ; preds = %25
  %27 = lshr i64 %12, 1
  %28 = trunc i64 %27 to i32
  br label %lean_obj_tag.exit35

29:                                               ; preds = %25
  %30 = getelementptr i8, ptr %1, i64 4
  %.val.i34 = load i32, ptr %30, align 4
  %31 = lshr i32 %.val.i34, 24
  br label %lean_obj_tag.exit35

lean_obj_tag.exit35:                              ; preds = %26, %29
  %.0.i33 = phi i32 [ %28, %26 ], [ %31, %29 ]
  %32 = icmp eq i32 %.0.i33, 0
  br i1 %32, label %33, label %41

33:                                               ; preds = %lean_obj_tag.exit35
  br i1 %.not.i27, label %34, label %lean_dec.exit19

34:                                               ; preds = %33
  %35 = load i32, ptr %0, align 4, !tbaa !8
  %36 = icmp sgt i32 %35, 1
  br i1 %36, label %37, label %39, !prof !11

37:                                               ; preds = %34
  %38 = add nsw i32 %35, -1
  store i32 %38, ptr %0, align 4, !tbaa !8
  br label %lean_dec.exit19

39:                                               ; preds = %34
  %.not.i21 = icmp eq i32 %35, 0
  br i1 %.not.i21, label %lean_dec.exit19, label %40

40:                                               ; preds = %39
  tail call void @lean_dec_ref_cold(ptr noundef nonnull %0) #4
  br label %lean_dec.exit19

41:                                               ; preds = %lean_obj_tag.exit35
  %42 = getelementptr inbounds nuw i8, ptr %0, i64 8
  %43 = load ptr, ptr %42, align 8, !tbaa !4
  %44 = ptrtoint ptr %43 to i64
  %45 = and i64 %44, 1
  %.not = icmp eq i64 %45, 0
  br i1 %.not, label %46, label %lean_inc.exit20

46:                                               ; preds = %41
  %.val.i36 = load i32, ptr %43, align 4, !tbaa !8
  %47 = icmp sgt i32 %.val.i36, 0
  br i1 %47, label %48, label %50, !prof !11

48:                                               ; preds = %46
  %49 = add nuw i32 %.val.i36, 1
  store i32 %49, ptr %43, align 4, !tbaa !8
  br label %lean_inc.exit20

50:                                               ; preds = %46
  %.not.i37 = icmp eq i32 %.val.i36, 0
  br i1 %.not.i37, label %lean_inc.exit20, label %51

51:                                               ; preds = %50
  tail call void @lean_inc_ref_cold(ptr noundef nonnull %43) #4
  br label %lean_inc.exit20

lean_inc.exit20:                                  ; preds = %51, %50, %48, %41
  br i1 %.not.i27, label %52, label %lean_dec.exit17

52:                                               ; preds = %lean_inc.exit20
  %53 = load i32, ptr %0, align 4, !tbaa !8
  %54 = icmp sgt i32 %53, 1
  br i1 %54, label %55, label %57, !prof !11

55:                                               ; preds = %52
  %56 = add nsw i32 %53, -1
  store i32 %56, ptr %0, align 4, !tbaa !8
  br label %lean_dec.exit17

57:                                               ; preds = %52
  %.not.i23 = icmp eq i32 %53, 0
  br i1 %.not.i23, label %lean_dec.exit17, label %58

58:                                               ; preds = %57
  tail call void @lean_dec_ref_cold(ptr noundef nonnull %0) #4
  br label %lean_dec.exit17

lean_dec.exit17:                                  ; preds = %58, %57, %55, %lean_inc.exit20
  %59 = getelementptr inbounds nuw i8, ptr %1, i64 8
  %60 = load ptr, ptr %59, align 8, !tbaa !4
  %61 = ptrtoint ptr %60 to i64
  %62 = and i64 %61, 1
  %.not43 = icmp eq i64 %62, 0
  br i1 %.not43, label %63, label %lean_inc.exit

63:                                               ; preds = %lean_dec.exit17
  %.val.i38 = load i32, ptr %60, align 4, !tbaa !8
  %64 = icmp sgt i32 %.val.i38, 0
  br i1 %64, label %65, label %67, !prof !11

65:                                               ; preds = %63
  %66 = add nuw i32 %.val.i38, 1
  store i32 %66, ptr %60, align 4, !tbaa !8
  br label %lean_inc.exit

67:                                               ; preds = %63
  %.not.i39 = icmp eq i32 %.val.i38, 0
  br i1 %.not.i39, label %lean_inc.exit, label %68

68:                                               ; preds = %67
  tail call void @lean_inc_ref_cold(ptr noundef nonnull %60) #4
  br label %lean_inc.exit

lean_inc.exit:                                    ; preds = %68, %67, %65, %lean_dec.exit17
  br i1 %.not.i28, label %69, label %lean_dec.exit

69:                                               ; preds = %lean_inc.exit
  %70 = load i32, ptr %1, align 4, !tbaa !8
  %71 = icmp sgt i32 %70, 1
  br i1 %71, label %72, label %74, !prof !11

72:                                               ; preds = %69
  %73 = add nsw i32 %70, -1
  store i32 %73, ptr %1, align 4, !tbaa !8
  br label %lean_dec.exit

74:                                               ; preds = %69
  %.not.i25 = icmp eq i32 %70, 0
  br i1 %.not.i25, label %lean_dec.exit, label %75

75:                                               ; preds = %74
  tail call void @lean_dec_ref_cold(ptr noundef nonnull %1) #4
  br label %lean_dec.exit

lean_dec.exit:                                    ; preds = %75, %74, %72, %lean_inc.exit
  %76 = tail call zeroext i8 @l_Sum_beqSum____x40_Init_Data_Sum_Basic___hyg_5____at_Lean_Elab_Tactic_SolveByElim_parseArgs___spec__5(ptr noundef %43, ptr noundef %60)
  br label %lean_dec.exit19

lean_dec.exit19:                                  ; preds = %lean_obj_tag.exit31, %33, %37, %39, %40, %21, %23, %24, %lean_obj_tag.exit31.thread, %lean_dec.exit
  %.0 = phi i8 [ %76, %lean_dec.exit ], [ 1, %lean_obj_tag.exit31.thread ], [ 0, %24 ], [ 0, %23 ], [ 0, %21 ], [ 0, %40 ], [ 0, %39 ], [ 0, %37 ], [ 0, %33 ], [ %spec.select, %lean_obj_tag.exit31 ]
  ret i8 %.0
}